
kod bil v2.elf:     file format elf32-avr

Sections:
Idx Name          Size      VMA       LMA       File off  Algn
  0 .data         00000000  00800100  00800100  000004e8  2**0
                  CONTENTS, ALLOC, LOAD, DATA
  1 .text         00000474  00000000  00000000  00000074  2**1
                  CONTENTS, ALLOC, LOAD, READONLY, CODE
  2 .bss          00000013  00800100  00800100  000004e8  2**0
                  ALLOC
  3 .comment      00000030  00000000  00000000  000004e8  2**0
                  CONTENTS, READONLY
  4 .note.gnu.avr.deviceinfo 00000040  00000000  00000000  00000518  2**2
                  CONTENTS, READONLY
  5 .debug_aranges 00000150  00000000  00000000  00000558  2**0
                  CONTENTS, READONLY, DEBUGGING
  6 .debug_info   00001ec3  00000000  00000000  000006a8  2**0
                  CONTENTS, READONLY, DEBUGGING
  7 .debug_abbrev 00000e64  00000000  00000000  0000256b  2**0
                  CONTENTS, READONLY, DEBUGGING
  8 .debug_line   00000843  00000000  00000000  000033cf  2**0
                  CONTENTS, READONLY, DEBUGGING
  9 .debug_frame  00000284  00000000  00000000  00003c14  2**2
                  CONTENTS, READONLY, DEBUGGING
 10 .debug_str    000009f8  00000000  00000000  00003e98  2**0
                  CONTENTS, READONLY, DEBUGGING
 11 .debug_loc    00000637  00000000  00000000  00004890  2**0
                  CONTENTS, READONLY, DEBUGGING
 12 .debug_ranges 00000100  00000000  00000000  00004ec7  2**0
                  CONTENTS, READONLY, DEBUGGING

Disassembly of section .text:

00000000 <__vectors>:
   0:	0c 94 35 00 	jmp	0x6a	; 0x6a <__ctors_end>
   4:	0c 94 5d 00 	jmp	0xba	; 0xba <__bad_interrupt>
   8:	0c 94 5d 00 	jmp	0xba	; 0xba <__bad_interrupt>
   c:	0c 94 5d 00 	jmp	0xba	; 0xba <__bad_interrupt>
  10:	0c 94 62 01 	jmp	0x2c4	; 0x2c4 <__vector_4>
  14:	0c 94 5d 00 	jmp	0xba	; 0xba <__bad_interrupt>
  18:	0c 94 5d 00 	jmp	0xba	; 0xba <__bad_interrupt>
  1c:	0c 94 5d 00 	jmp	0xba	; 0xba <__bad_interrupt>
  20:	0c 94 5d 00 	jmp	0xba	; 0xba <__bad_interrupt>
  24:	0c 94 5d 00 	jmp	0xba	; 0xba <__bad_interrupt>
  28:	0c 94 5d 00 	jmp	0xba	; 0xba <__bad_interrupt>
  2c:	0c 94 5d 00 	jmp	0xba	; 0xba <__bad_interrupt>
  30:	0c 94 5d 00 	jmp	0xba	; 0xba <__bad_interrupt>
  34:	0c 94 5d 00 	jmp	0xba	; 0xba <__bad_interrupt>
  38:	0c 94 5d 00 	jmp	0xba	; 0xba <__bad_interrupt>
  3c:	0c 94 5d 00 	jmp	0xba	; 0xba <__bad_interrupt>
  40:	0c 94 58 01 	jmp	0x2b0	; 0x2b0 <__vector_16>
  44:	0c 94 5d 00 	jmp	0xba	; 0xba <__bad_interrupt>
  48:	0c 94 5d 00 	jmp	0xba	; 0xba <__bad_interrupt>
  4c:	0c 94 5d 00 	jmp	0xba	; 0xba <__bad_interrupt>
  50:	0c 94 5d 00 	jmp	0xba	; 0xba <__bad_interrupt>
  54:	0c 94 5d 00 	jmp	0xba	; 0xba <__bad_interrupt>
  58:	0c 94 5d 00 	jmp	0xba	; 0xba <__bad_interrupt>
  5c:	0c 94 5d 00 	jmp	0xba	; 0xba <__bad_interrupt>
  60:	0c 94 5d 00 	jmp	0xba	; 0xba <__bad_interrupt>
  64:	0c 94 5d 00 	jmp	0xba	; 0xba <__bad_interrupt>

00000068 <__ctors_start>:
  68:	51 01       	movw	r10, r2

0000006a <__ctors_end>:
  6a:	11 24       	eor	r1, r1
  6c:	1f be       	out	0x3f, r1	; 63
  6e:	cf ef       	ldi	r28, 0xFF	; 255
  70:	d8 e0       	ldi	r29, 0x08	; 8
  72:	de bf       	out	0x3e, r29	; 62
  74:	cd bf       	out	0x3d, r28	; 61

00000076 <__do_copy_data>:
  76:	11 e0       	ldi	r17, 0x01	; 1
  78:	a0 e0       	ldi	r26, 0x00	; 0
  7a:	b1 e0       	ldi	r27, 0x01	; 1
  7c:	e4 e7       	ldi	r30, 0x74	; 116
  7e:	f4 e0       	ldi	r31, 0x04	; 4
  80:	02 c0       	rjmp	.+4      	; 0x86 <__do_copy_data+0x10>
  82:	05 90       	lpm	r0, Z+
  84:	0d 92       	st	X+, r0
  86:	a0 30       	cpi	r26, 0x00	; 0
  88:	b1 07       	cpc	r27, r17
  8a:	d9 f7       	brne	.-10     	; 0x82 <__do_copy_data+0xc>

0000008c <__do_clear_bss>:
  8c:	21 e0       	ldi	r18, 0x01	; 1
  8e:	a0 e0       	ldi	r26, 0x00	; 0
  90:	b1 e0       	ldi	r27, 0x01	; 1
  92:	01 c0       	rjmp	.+2      	; 0x96 <.do_clear_bss_start>

00000094 <.do_clear_bss_loop>:
  94:	1d 92       	st	X+, r1

00000096 <.do_clear_bss_start>:
  96:	a3 31       	cpi	r26, 0x13	; 19
  98:	b2 07       	cpc	r27, r18
  9a:	e1 f7       	brne	.-8      	; 0x94 <.do_clear_bss_loop>

0000009c <__do_global_ctors>:
  9c:	10 e0       	ldi	r17, 0x00	; 0
  9e:	c5 e3       	ldi	r28, 0x35	; 53
  a0:	d0 e0       	ldi	r29, 0x00	; 0
  a2:	04 c0       	rjmp	.+8      	; 0xac <__do_global_ctors+0x10>
  a4:	21 97       	sbiw	r28, 0x01	; 1
  a6:	fe 01       	movw	r30, r28
  a8:	0e 94 32 02 	call	0x464	; 0x464 <__tablejump2__>
  ac:	c4 33       	cpi	r28, 0x34	; 52
  ae:	d1 07       	cpc	r29, r17
  b0:	c9 f7       	brne	.-14     	; 0xa4 <__do_global_ctors+0x8>
  b2:	0e 94 6c 01 	call	0x2d8	; 0x2d8 <main>
  b6:	0c 94 38 02 	jmp	0x470	; 0x470 <_exit>

000000ba <__bad_interrupt>:
  ba:	0c 94 00 00 	jmp	0	; 0x0 <__vectors>

000000be <_ZN6ButtonC1Eh>:
#include "GPIO.h"

Button::Button(const uint8_t PIN)
  be:	fc 01       	movw	r30, r24
#define DISABLE_TIMER2 TIMSK2 = 0x00

enum class PWM_Period { ON, OFF };


class GPIO
  c0:	10 82       	st	Z, r1
  c2:	12 82       	std	Z+2, r1	; 0x02
  c4:	11 82       	std	Z+1, r1	; 0x01
  c6:	13 82       	std	Z+3, r1	; 0x03
{
	if(PIN >= 0 && PIN <=7)
  c8:	68 30       	cpi	r22, 0x08	; 8
  ca:	80 f4       	brcc	.+32     	; 0xec <_ZN6ButtonC1Eh+0x2e>
	{
		this->io_port = IO_port::D;
  cc:	83 e0       	ldi	r24, 0x03	; 3
  ce:	90 e0       	ldi	r25, 0x00	; 0
  d0:	92 83       	std	Z+2, r25	; 0x02
  d2:	81 83       	std	Z+1, r24	; 0x01
		this->PIN=PIN;
  d4:	60 83       	st	Z, r22
		SET(PORTD, this->PIN);
  d6:	2b b1       	in	r18, 0x0b	; 11
  d8:	81 e0       	ldi	r24, 0x01	; 1
  da:	90 e0       	ldi	r25, 0x00	; 0
  dc:	06 2e       	mov	r0, r22
  de:	02 c0       	rjmp	.+4      	; 0xe4 <_ZN6ButtonC1Eh+0x26>
  e0:	88 0f       	add	r24, r24
  e2:	99 1f       	adc	r25, r25
  e4:	0a 94       	dec	r0
  e6:	e2 f7       	brpl	.-8      	; 0xe0 <_ZN6ButtonC1Eh+0x22>
  e8:	82 2b       	or	r24, r18
  ea:	8b b9       	out	0x0b, r24	; 11
	}
	else if (PIN >= 8 && PIN <= 13);
	{
		this->io_port = IO_port::B;
  ec:	81 e0       	ldi	r24, 0x01	; 1
  ee:	90 e0       	ldi	r25, 0x00	; 0
  f0:	92 83       	std	Z+2, r25	; 0x02
  f2:	81 83       	std	Z+1, r24	; 0x01
		this->PIN = PIN - 8;
  f4:	68 50       	subi	r22, 0x08	; 8
  f6:	60 83       	st	Z, r22
		SET(PORTB, this->PIN);
  f8:	25 b1       	in	r18, 0x05	; 5
  fa:	02 c0       	rjmp	.+4      	; 0x100 <_ZN6ButtonC1Eh+0x42>
  fc:	88 0f       	add	r24, r24
  fe:	99 1f       	adc	r25, r25
 100:	6a 95       	dec	r22
 102:	e2 f7       	brpl	.-8      	; 0xfc <_ZN6ButtonC1Eh+0x3e>
 104:	82 2b       	or	r24, r18
 106:	85 b9       	out	0x05, r24	; 5
 108:	08 95       	ret

0000010a <_ZN6Button10is_pressedEv>:
	return;
}

bool Button::is_pressed(void)
{
	if (this->io_port ==IO_port::B)
 10a:	fc 01       	movw	r30, r24
 10c:	21 81       	ldd	r18, Z+1	; 0x01
 10e:	32 81       	ldd	r19, Z+2	; 0x02
 110:	21 30       	cpi	r18, 0x01	; 1
 112:	31 05       	cpc	r19, r1
 114:	61 f4       	brne	.+24     	; 0x12e <_ZN6Button10is_pressedEv+0x24>
	return READ(PINB, this->PIN);
 116:	23 b1       	in	r18, 0x03	; 3
 118:	30 e0       	ldi	r19, 0x00	; 0
 11a:	a9 01       	movw	r20, r18
 11c:	00 80       	ld	r0, Z
 11e:	02 c0       	rjmp	.+4      	; 0x124 <_ZN6Button10is_pressedEv+0x1a>
 120:	55 95       	asr	r21
 122:	47 95       	ror	r20
 124:	0a 94       	dec	r0
 126:	e2 f7       	brpl	.-8      	; 0x120 <_ZN6Button10is_pressedEv+0x16>
 128:	ca 01       	movw	r24, r20
 12a:	81 70       	andi	r24, 0x01	; 1
 12c:	08 95       	ret
	else if (this->io_port == IO_port::D)
 12e:	23 30       	cpi	r18, 0x03	; 3
 130:	31 05       	cpc	r19, r1
 132:	69 f4       	brne	.+26     	; 0x14e <_ZN6Button10is_pressedEv+0x44>
	return READ(PIND, this->PIN);
 134:	29 b1       	in	r18, 0x09	; 9
 136:	30 e0       	ldi	r19, 0x00	; 0
 138:	a9 01       	movw	r20, r18
 13a:	fc 01       	movw	r30, r24
 13c:	00 80       	ld	r0, Z
 13e:	02 c0       	rjmp	.+4      	; 0x144 <_ZN6Button10is_pressedEv+0x3a>
 140:	55 95       	asr	r21
 142:	47 95       	ror	r20
 144:	0a 94       	dec	r0
 146:	e2 f7       	brpl	.-8      	; 0x140 <_ZN6Button10is_pressedEv+0x36>
 148:	ca 01       	movw	r24, r20
 14a:	81 70       	andi	r24, 0x01	; 1
 14c:	08 95       	ret
	return false;
 14e:	80 e0       	ldi	r24, 0x00	; 0
}
 150:	08 95       	ret

00000152 <_ZN6Button16enable_interruptEv>:

void Button::enable_interrupt()
{
	asm("SEI");
 152:	78 94       	sei
	if (this->io_port == IO_port::B)
 154:	dc 01       	movw	r26, r24
 156:	11 96       	adiw	r26, 0x01	; 1
 158:	2d 91       	ld	r18, X+
 15a:	3c 91       	ld	r19, X
 15c:	12 97       	sbiw	r26, 0x02	; 2
 15e:	21 30       	cpi	r18, 0x01	; 1
 160:	31 05       	cpc	r19, r1
 162:	a9 f4       	brne	.+42     	; 0x18e <_ZN6Button16enable_interruptEv+0x3c>
	{
		SET(PCICR, PCIE0);
 164:	e8 e6       	ldi	r30, 0x68	; 104
 166:	f0 e0       	ldi	r31, 0x00	; 0
 168:	20 81       	ld	r18, Z
 16a:	21 60       	ori	r18, 0x01	; 1
 16c:	20 83       	st	Z, r18
		SET(PCMSK0, this->PIN);
 16e:	eb e6       	ldi	r30, 0x6B	; 107
 170:	f0 e0       	ldi	r31, 0x00	; 0
 172:	40 81       	ld	r20, Z
 174:	21 e0       	ldi	r18, 0x01	; 1
 176:	30 e0       	ldi	r19, 0x00	; 0
 178:	b9 01       	movw	r22, r18
 17a:	0c 90       	ld	r0, X
 17c:	02 c0       	rjmp	.+4      	; 0x182 <_ZN6Button16enable_interruptEv+0x30>
 17e:	66 0f       	add	r22, r22
 180:	77 1f       	adc	r23, r23
 182:	0a 94       	dec	r0
 184:	e2 f7       	brpl	.-8      	; 0x17e <_ZN6Button16enable_interruptEv+0x2c>
 186:	cb 01       	movw	r24, r22
 188:	84 2b       	or	r24, r20
 18a:	80 83       	st	Z, r24
 18c:	08 95       	ret
	}
	else if (this->io_port == IO_port::D)
 18e:	23 30       	cpi	r18, 0x03	; 3
 190:	31 05       	cpc	r19, r1
 192:	a9 f4       	brne	.+42     	; 0x1be <_ZN6Button16enable_interruptEv+0x6c>
	{
		SET(PCICR, PCIE2);
 194:	e8 e6       	ldi	r30, 0x68	; 104
 196:	f0 e0       	ldi	r31, 0x00	; 0
 198:	20 81       	ld	r18, Z
 19a:	24 60       	ori	r18, 0x04	; 4
 19c:	20 83       	st	Z, r18
		SET(PCMSK2, this->PIN);
 19e:	ed e6       	ldi	r30, 0x6D	; 109
 1a0:	f0 e0       	ldi	r31, 0x00	; 0
 1a2:	40 81       	ld	r20, Z
 1a4:	21 e0       	ldi	r18, 0x01	; 1
 1a6:	30 e0       	ldi	r19, 0x00	; 0
 1a8:	b9 01       	movw	r22, r18
 1aa:	dc 01       	movw	r26, r24
 1ac:	0c 90       	ld	r0, X
 1ae:	02 c0       	rjmp	.+4      	; 0x1b4 <_ZN6Button16enable_interruptEv+0x62>
 1b0:	66 0f       	add	r22, r22
 1b2:	77 1f       	adc	r23, r23
 1b4:	0a 94       	dec	r0
 1b6:	e2 f7       	brpl	.-8      	; 0x1b0 <_ZN6Button16enable_interruptEv+0x5e>
 1b8:	cb 01       	movw	r24, r22
 1ba:	84 2b       	or	r24, r20
 1bc:	80 83       	st	Z, r24
 1be:	08 95       	ret

000001c0 <_Z41__static_initialization_and_destruction_0ii>:

Sensor new_Sensor(const uint8_t PIN)
{
	Sensor self(PIN);
	return self;
 1c0:	01 97       	sbiw	r24, 0x01	; 1
 1c2:	c1 f4       	brne	.+48     	; 0x1f4 <_Z41__static_initialization_and_destruction_0ii+0x34>
 1c4:	6f 3f       	cpi	r22, 0xFF	; 255
 1c6:	7f 4f       	sbci	r23, 0xFF	; 255
 1c8:	a9 f4       	brne	.+42     	; 0x1f4 <_Z41__static_initialization_and_destruction_0ii+0x34>
 1ca:	e8 e0       	ldi	r30, 0x08	; 8
 1cc:	f1 e0       	ldi	r31, 0x01	; 1
 1ce:	10 82       	st	Z, r1
 1d0:	12 82       	std	Z+2, r1	; 0x02
 1d2:	11 82       	std	Z+1, r1	; 0x01
 1d4:	13 82       	std	Z+3, r1	; 0x03
 1d6:	14 82       	std	Z+4, r1	; 0x04
 1d8:	15 82       	std	Z+5, r1	; 0x05
 1da:	81 e0       	ldi	r24, 0x01	; 1
 1dc:	82 87       	std	Z+10, r24	; 0x0a
 1de:	e4 e0       	ldi	r30, 0x04	; 4
 1e0:	f1 e0       	ldi	r31, 0x01	; 1
 1e2:	10 82       	st	Z, r1
 1e4:	12 82       	std	Z+2, r1	; 0x02
 1e6:	11 82       	std	Z+1, r1	; 0x01
 1e8:	13 82       	std	Z+3, r1	; 0x03
 1ea:	e0 e0       	ldi	r30, 0x00	; 0
 1ec:	f1 e0       	ldi	r31, 0x01	; 1
 1ee:	10 82       	st	Z, r1
 1f0:	12 82       	std	Z+2, r1	; 0x02
 1f2:	11 82       	std	Z+1, r1	; 0x01
 1f4:	08 95       	ret

000001f6 <_Z12start_Buttonh>:
 1f6:	cf 93       	push	r28
 1f8:	df 93       	push	r29
 1fa:	00 d0       	rcall	.+0      	; 0x1fc <_Z12start_Buttonh+0x6>
 1fc:	00 d0       	rcall	.+0      	; 0x1fe <_Z12start_Buttonh+0x8>
 1fe:	cd b7       	in	r28, 0x3d	; 61
 200:	de b7       	in	r29, 0x3e	; 62
 202:	68 2f       	mov	r22, r24
 204:	ce 01       	movw	r24, r28
 206:	01 96       	adiw	r24, 0x01	; 1
 208:	0e 94 5f 00 	call	0xbe	; 0xbe <_ZN6ButtonC1Eh>
 20c:	69 81       	ldd	r22, Y+1	; 0x01
 20e:	7a 81       	ldd	r23, Y+2	; 0x02
 210:	8b 81       	ldd	r24, Y+3	; 0x03
 212:	9c 81       	ldd	r25, Y+4	; 0x04
 214:	0f 90       	pop	r0
 216:	0f 90       	pop	r0
 218:	0f 90       	pop	r0
 21a:	0f 90       	pop	r0
 21c:	df 91       	pop	r29
 21e:	cf 91       	pop	r28
 220:	08 95       	ret

00000222 <_Z9pwm_motorh>:
 222:	cf 93       	push	r28
 224:	df 93       	push	r29
 226:	ec 01       	movw	r28, r24
 228:	0e 94 7e 01 	call	0x2fc	; 0x2fc <_ZN5MotorC1Eh>
 22c:	ce 01       	movw	r24, r28
 22e:	df 91       	pop	r29
 230:	cf 91       	pop	r28
 232:	08 95       	ret

00000234 <_Z9init_GPIOv>:
 234:	cf 93       	push	r28
 236:	df 93       	push	r29
 238:	cd b7       	in	r28, 0x3d	; 61
 23a:	de b7       	in	r29, 0x3e	; 62
 23c:	2b 97       	sbiw	r28, 0x0b	; 11
 23e:	0f b6       	in	r0, 0x3f	; 63
 240:	f8 94       	cli
 242:	de bf       	out	0x3e, r29	; 62
 244:	0f be       	out	0x3f, r0	; 63
 246:	cd bf       	out	0x3d, r28	; 61
 248:	8d e0       	ldi	r24, 0x0D	; 13
 24a:	0e 94 fb 00 	call	0x1f6	; 0x1f6 <_Z12start_Buttonh>
 24e:	60 93 04 01 	sts	0x0104, r22	; 0x800104 <button>
 252:	70 93 05 01 	sts	0x0105, r23	; 0x800105 <button+0x1>
 256:	80 93 06 01 	sts	0x0106, r24	; 0x800106 <button+0x2>
 25a:	90 93 07 01 	sts	0x0107, r25	; 0x800107 <button+0x3>
 25e:	84 e0       	ldi	r24, 0x04	; 4
 260:	91 e0       	ldi	r25, 0x01	; 1
 262:	0e 94 a9 00 	call	0x152	; 0x152 <_ZN6Button16enable_interruptEv>
 266:	65 e0       	ldi	r22, 0x05	; 5
 268:	ce 01       	movw	r24, r28
 26a:	01 96       	adiw	r24, 0x01	; 1
 26c:	0e 94 11 01 	call	0x222	; 0x222 <_Z9pwm_motorh>
 270:	8b e0       	ldi	r24, 0x0B	; 11
 272:	fe 01       	movw	r30, r28
 274:	31 96       	adiw	r30, 0x01	; 1
 276:	a8 e0       	ldi	r26, 0x08	; 8
 278:	b1 e0       	ldi	r27, 0x01	; 1
 27a:	01 90       	ld	r0, Z+
 27c:	0d 92       	st	X+, r0
 27e:	8a 95       	dec	r24
 280:	e1 f7       	brne	.-8      	; 0x27a <_Z9init_GPIOv+0x46>
 282:	88 e0       	ldi	r24, 0x08	; 8
 284:	91 e0       	ldi	r25, 0x01	; 1
 286:	0e 94 db 01 	call	0x3b6	; 0x3b6 <_ZN5Motor16enable_interruptEv>
 28a:	8a b1       	in	r24, 0x0a	; 10
 28c:	80 68       	ori	r24, 0x80	; 128
 28e:	8a b9       	out	0x0a, r24	; 10
 290:	2b 96       	adiw	r28, 0x0b	; 11
 292:	0f b6       	in	r0, 0x3f	; 63
 294:	f8 94       	cli
 296:	de bf       	out	0x3e, r29	; 62
 298:	0f be       	out	0x3f, r0	; 63
 29a:	cd bf       	out	0x3d, r28	; 61
 29c:	df 91       	pop	r29
 29e:	cf 91       	pop	r28
 2a0:	08 95       	ret

000002a2 <_GLOBAL__sub_I_motor>:
 2a2:	6f ef       	ldi	r22, 0xFF	; 255
 2a4:	7f ef       	ldi	r23, 0xFF	; 255
 2a6:	81 e0       	ldi	r24, 0x01	; 1
 2a8:	90 e0       	ldi	r25, 0x00	; 0
 2aa:	0e 94 e0 00 	call	0x1c0	; 0x1c0 <_Z41__static_initialization_and_destruction_0ii>
 2ae:	08 95       	ret

000002b0 <__vector_16>:
#include "GPIO.h"


ISR (TIMER0_OVF_vect)
{
 2b0:	1f 92       	push	r1
 2b2:	0f 92       	push	r0
 2b4:	0f b6       	in	r0, 0x3f	; 63
 2b6:	0f 92       	push	r0
 2b8:	11 24       	eor	r1, r1
	
	return;
}
 2ba:	0f 90       	pop	r0
 2bc:	0f be       	out	0x3f, r0	; 63
 2be:	0f 90       	pop	r0
 2c0:	1f 90       	pop	r1
 2c2:	18 95       	reti

000002c4 <__vector_4>:
/******************************************************************************
* avbrottsrutin som ska användas vid start av tävling.
* PCICR = (1<<PCINT1);   PCICR = 0x00; PIN 9
******************************************************************************/
ISR (PCINT1_vect)
{
 2c4:	1f 92       	push	r1
 2c6:	0f 92       	push	r0
 2c8:	0f b6       	in	r0, 0x3f	; 63
 2ca:	0f 92       	push	r0
 2cc:	11 24       	eor	r1, r1
	//if (button.is_pressed()) motor.toggle();
	return;
 2ce:	0f 90       	pop	r0
 2d0:	0f be       	out	0x3f, r0	; 63
 2d2:	0f 90       	pop	r0
 2d4:	1f 90       	pop	r1
 2d6:	18 95       	reti

000002d8 <main>:
#include "header.h"


int main(void)
{
	init_GPIO();
 2d8:	0e 94 1a 01 	call	0x234	; 0x234 <_Z9init_GPIOv>
	
	while (1)
	{
		if (button.is_pressed())
 2dc:	84 e0       	ldi	r24, 0x04	; 4
 2de:	91 e0       	ldi	r25, 0x01	; 1
 2e0:	0e 94 85 00 	call	0x10a	; 0x10a <_ZN6Button10is_pressedEv>
 2e4:	88 23       	and	r24, r24
 2e6:	29 f0       	breq	.+10     	; 0x2f2 <main+0x1a>
		motor.off();
 2e8:	88 e0       	ldi	r24, 0x08	; 8
 2ea:	91 e0       	ldi	r25, 0x01	; 1
 2ec:	0e 94 b2 01 	call	0x364	; 0x364 <_ZN5Motor3offEv>
 2f0:	f5 cf       	rjmp	.-22     	; 0x2dc <main+0x4>
		else
		motor.on();
 2f2:	88 e0       	ldi	r24, 0x08	; 8
 2f4:	91 e0       	ldi	r25, 0x01	; 1
 2f6:	0e 94 09 02 	call	0x412	; 0x412 <_ZN5Motor2onEv>
 2fa:	f0 cf       	rjmp	.-32     	; 0x2dc <main+0x4>

000002fc <_ZN5MotorC1Eh>:
}

bool Motor::is_enabled()
{
	return this->motor_enabled;
}
 2fc:	fc 01       	movw	r30, r24
 2fe:	10 82       	st	Z, r1
 300:	12 82       	std	Z+2, r1	; 0x02
 302:	11 82       	std	Z+1, r1	; 0x01
 304:	13 82       	std	Z+3, r1	; 0x03
 306:	14 82       	std	Z+4, r1	; 0x04
 308:	15 82       	std	Z+5, r1	; 0x05
 30a:	81 e0       	ldi	r24, 0x01	; 1
 30c:	82 87       	std	Z+10, r24	; 0x0a
 30e:	68 30       	cpi	r22, 0x08	; 8
 310:	80 f4       	brcc	.+32     	; 0x332 <_ZN5MotorC1Eh+0x36>
 312:	83 e0       	ldi	r24, 0x03	; 3
 314:	90 e0       	ldi	r25, 0x00	; 0
 316:	92 83       	std	Z+2, r25	; 0x02
 318:	81 83       	std	Z+1, r24	; 0x01
 31a:	60 83       	st	Z, r22
 31c:	2a b1       	in	r18, 0x0a	; 10
 31e:	81 e0       	ldi	r24, 0x01	; 1
 320:	90 e0       	ldi	r25, 0x00	; 0
 322:	02 c0       	rjmp	.+4      	; 0x328 <_ZN5MotorC1Eh+0x2c>
 324:	88 0f       	add	r24, r24
 326:	99 1f       	adc	r25, r25
 328:	6a 95       	dec	r22
 32a:	e2 f7       	brpl	.-8      	; 0x324 <_ZN5MotorC1Eh+0x28>
 32c:	82 2b       	or	r24, r18
 32e:	8a b9       	out	0x0a, r24	; 10
 330:	10 c0       	rjmp	.+32     	; 0x352 <_ZN5MotorC1Eh+0x56>
 332:	68 50       	subi	r22, 0x08	; 8
 334:	66 30       	cpi	r22, 0x06	; 6
 336:	68 f4       	brcc	.+26     	; 0x352 <_ZN5MotorC1Eh+0x56>
 338:	81 e0       	ldi	r24, 0x01	; 1
 33a:	90 e0       	ldi	r25, 0x00	; 0
 33c:	92 83       	std	Z+2, r25	; 0x02
 33e:	81 83       	std	Z+1, r24	; 0x01
 340:	60 83       	st	Z, r22
 342:	24 b1       	in	r18, 0x04	; 4
 344:	02 c0       	rjmp	.+4      	; 0x34a <_ZN5MotorC1Eh+0x4e>
 346:	88 0f       	add	r24, r24
 348:	99 1f       	adc	r25, r25
 34a:	6a 95       	dec	r22
 34c:	e2 f7       	brpl	.-8      	; 0x346 <_ZN5MotorC1Eh+0x4a>
 34e:	82 2b       	or	r24, r18
 350:	84 b9       	out	0x04, r24	; 4
 352:	81 e0       	ldi	r24, 0x01	; 1
 354:	86 83       	std	Z+6, r24	; 0x06
 356:	89 e0       	ldi	r24, 0x09	; 9
 358:	87 83       	std	Z+7, r24	; 0x07
 35a:	82 e0       	ldi	r24, 0x02	; 2
 35c:	90 e0       	ldi	r25, 0x00	; 0
 35e:	91 87       	std	Z+9, r25	; 0x09
 360:	80 87       	std	Z+8, r24	; 0x08
 362:	08 95       	ret

00000364 <_ZN5Motor3offEv>:
 364:	fc 01       	movw	r30, r24
 366:	81 81       	ldd	r24, Z+1	; 0x01
 368:	92 81       	ldd	r25, Z+2	; 0x02
 36a:	81 30       	cpi	r24, 0x01	; 1
 36c:	91 05       	cpc	r25, r1
 36e:	81 f4       	brne	.+32     	; 0x390 <_ZN5Motor3offEv+0x2c>
 370:	95 b1       	in	r25, 0x05	; 5
 372:	21 e0       	ldi	r18, 0x01	; 1
 374:	30 e0       	ldi	r19, 0x00	; 0
 376:	00 80       	ld	r0, Z
 378:	02 c0       	rjmp	.+4      	; 0x37e <_ZN5Motor3offEv+0x1a>
 37a:	22 0f       	add	r18, r18
 37c:	33 1f       	adc	r19, r19
 37e:	0a 94       	dec	r0
 380:	e2 f7       	brpl	.-8      	; 0x37a <_ZN5Motor3offEv+0x16>
 382:	81 e0       	ldi	r24, 0x01	; 1
 384:	23 2b       	or	r18, r19
 386:	09 f0       	breq	.+2      	; 0x38a <_ZN5Motor3offEv+0x26>
 388:	80 e0       	ldi	r24, 0x00	; 0
 38a:	89 23       	and	r24, r25
 38c:	85 b9       	out	0x05, r24	; 5
 38e:	11 c0       	rjmp	.+34     	; 0x3b2 <_ZN5Motor3offEv+0x4e>
 390:	03 97       	sbiw	r24, 0x03	; 3
 392:	79 f4       	brne	.+30     	; 0x3b2 <_ZN5Motor3offEv+0x4e>
 394:	9b b1       	in	r25, 0x0b	; 11
 396:	21 e0       	ldi	r18, 0x01	; 1
 398:	30 e0       	ldi	r19, 0x00	; 0
 39a:	00 80       	ld	r0, Z
 39c:	02 c0       	rjmp	.+4      	; 0x3a2 <_ZN5Motor3offEv+0x3e>
 39e:	22 0f       	add	r18, r18
 3a0:	33 1f       	adc	r19, r19
 3a2:	0a 94       	dec	r0
 3a4:	e2 f7       	brpl	.-8      	; 0x39e <_ZN5Motor3offEv+0x3a>
 3a6:	81 e0       	ldi	r24, 0x01	; 1
 3a8:	23 2b       	or	r18, r19
 3aa:	09 f0       	breq	.+2      	; 0x3ae <_ZN5Motor3offEv+0x4a>
 3ac:	80 e0       	ldi	r24, 0x00	; 0
 3ae:	89 23       	and	r24, r25
 3b0:	8b b9       	out	0x0b, r24	; 11
 3b2:	15 82       	std	Z+5, r1	; 0x05
 3b4:	08 95       	ret

000003b6 <_ZN5Motor16enable_interruptEv>:
 3b6:	ec e6       	ldi	r30, 0x6C	; 108
 3b8:	f0 e0       	ldi	r31, 0x00	; 0
 3ba:	40 81       	ld	r20, Z
 3bc:	21 e0       	ldi	r18, 0x01	; 1
 3be:	30 e0       	ldi	r19, 0x00	; 0
 3c0:	dc 01       	movw	r26, r24
 3c2:	17 96       	adiw	r26, 0x07	; 7
 3c4:	0c 90       	ld	r0, X
 3c6:	17 97       	sbiw	r26, 0x07	; 7
 3c8:	02 c0       	rjmp	.+4      	; 0x3ce <_ZN5Motor16enable_interruptEv+0x18>
 3ca:	22 0f       	add	r18, r18
 3cc:	33 1f       	adc	r19, r19
 3ce:	0a 94       	dec	r0
 3d0:	e2 f7       	brpl	.-8      	; 0x3ca <_ZN5Motor16enable_interruptEv+0x14>
 3d2:	24 2b       	or	r18, r20
 3d4:	20 83       	st	Z, r18
 3d6:	21 e0       	ldi	r18, 0x01	; 1
 3d8:	14 96       	adiw	r26, 0x04	; 4
 3da:	2c 93       	st	X, r18
 3dc:	08 95       	ret

000003de <_ZN5Motor17forward_directionEv>:

void Motor::forward_direction()
{
	PORTD |= (1<<IN1);
 3de:	8b b1       	in	r24, 0x0b	; 11
 3e0:	80 68       	ori	r24, 0x80	; 128
 3e2:	8b b9       	out	0x0b, r24	; 11
	PORTD &= ~(1<<IN2);
 3e4:	8b b1       	in	r24, 0x0b	; 11
 3e6:	8b b9       	out	0x0b, r24	; 11
 3e8:	08 95       	ret

000003ea <_ZN5Motor17reverse_directionEv>:
}

void Motor::reverse_direction()
{
	PORTD |= (1<<IN1);
 3ea:	8b b1       	in	r24, 0x0b	; 11
 3ec:	80 68       	ori	r24, 0x80	; 128
 3ee:	8b b9       	out	0x0b, r24	; 11
	PORTD &= ~(1<<IN2);
 3f0:	8b b1       	in	r24, 0x0b	; 11
 3f2:	8b b9       	out	0x0b, r24	; 11
 3f4:	08 95       	ret

000003f6 <_ZN5Motor14read_directionEv>:
	if (this->motor_enabled) this->disabled();
	else this->enabled();
}

void Motor::read_direction(void)
{
 3f6:	fc 01       	movw	r30, r24
	if (forward_enabled)
 3f8:	92 85       	ldd	r25, Z+10	; 0x0a
 3fa:	99 23       	and	r25, r25
 3fc:	21 f0       	breq	.+8      	; 0x406 <__EEPROM_REGION_LENGTH__+0x6>
	{
		this->forward_direction();
 3fe:	cf 01       	movw	r24, r30
 400:	0e 94 ef 01 	call	0x3de	; 0x3de <_ZN5Motor17forward_directionEv>
 404:	08 95       	ret
	}
	else if (!forward_enabled)
 406:	91 11       	cpse	r25, r1
 408:	03 c0       	rjmp	.+6      	; 0x410 <__EEPROM_REGION_LENGTH__+0x10>
	{
		this->reverse_direction();
 40a:	cf 01       	movw	r24, r30
 40c:	0e 94 f5 01 	call	0x3ea	; 0x3ea <_ZN5Motor17reverse_directionEv>
 410:	08 95       	ret

00000412 <_ZN5Motor2onEv>:
	this->sensor_PCINT = this->sensor_PIN + 8;
	this->sensor_io_port = IO_port::C;
}

void Motor::on(void)
{
 412:	cf 93       	push	r28
 414:	df 93       	push	r29
 416:	ec 01       	movw	r28, r24
	if (this->io_port == IO_port::B)
 418:	89 81       	ldd	r24, Y+1	; 0x01
 41a:	9a 81       	ldd	r25, Y+2	; 0x02
 41c:	81 30       	cpi	r24, 0x01	; 1
 41e:	91 05       	cpc	r25, r1
 420:	61 f4       	brne	.+24     	; 0x43a <_ZN5Motor2onEv+0x28>
	SET(PORTB, this->PIN);
 422:	25 b1       	in	r18, 0x05	; 5
 424:	81 e0       	ldi	r24, 0x01	; 1
 426:	90 e0       	ldi	r25, 0x00	; 0
 428:	08 80       	ld	r0, Y
 42a:	02 c0       	rjmp	.+4      	; 0x430 <_ZN5Motor2onEv+0x1e>
 42c:	88 0f       	add	r24, r24
 42e:	99 1f       	adc	r25, r25
 430:	0a 94       	dec	r0
 432:	e2 f7       	brpl	.-8      	; 0x42c <_ZN5Motor2onEv+0x1a>
 434:	82 2b       	or	r24, r18
 436:	85 b9       	out	0x05, r24	; 5
 438:	0d c0       	rjmp	.+26     	; 0x454 <_ZN5Motor2onEv+0x42>
	else if(this->io_port == IO_port::D)
 43a:	03 97       	sbiw	r24, 0x03	; 3
 43c:	59 f4       	brne	.+22     	; 0x454 <_ZN5Motor2onEv+0x42>
	SET(PORTD, this->PIN);
 43e:	2b b1       	in	r18, 0x0b	; 11
 440:	81 e0       	ldi	r24, 0x01	; 1
 442:	90 e0       	ldi	r25, 0x00	; 0
 444:	08 80       	ld	r0, Y
 446:	02 c0       	rjmp	.+4      	; 0x44c <_ZN5Motor2onEv+0x3a>
 448:	88 0f       	add	r24, r24
 44a:	99 1f       	adc	r25, r25
 44c:	0a 94       	dec	r0
 44e:	e2 f7       	brpl	.-8      	; 0x448 <_ZN5Motor2onEv+0x36>
 450:	82 2b       	or	r24, r18
 452:	8b b9       	out	0x0b, r24	; 11
	this->read_direction();
 454:	ce 01       	movw	r24, r28
 456:	0e 94 fb 01 	call	0x3f6	; 0x3f6 <_ZN5Motor14read_directionEv>
	this->motor_enabled = true;
 45a:	81 e0       	ldi	r24, 0x01	; 1
 45c:	8d 83       	std	Y+5, r24	; 0x05
	return;
}
 45e:	df 91       	pop	r29
 460:	cf 91       	pop	r28
 462:	08 95       	ret

00000464 <__tablejump2__>:
 464:	ee 0f       	add	r30, r30
 466:	ff 1f       	adc	r31, r31
 468:	05 90       	lpm	r0, Z+
 46a:	f4 91       	lpm	r31, Z
 46c:	e0 2d       	mov	r30, r0
 46e:	09 94       	ijmp

00000470 <_exit>:
 470:	f8 94       	cli

00000472 <__stop_program>:
 472:	ff cf       	rjmp	.-2      	; 0x472 <__stop_program>
